; Function Attrs: nounwind uwtable
define hidden void @zif_class_parents(ptr noundef readonly captures(none) %0, ptr noundef %1) #0 {
  %3 = alloca ptr, align 8
  %4 = alloca i8, align 1
  call void @llvm.lifetime.start.p0(i64 8, ptr nonnull %3) #10
  call void @llvm.lifetime.start.p0(i64 1, ptr nonnull %4) #10
  store i8 1, ptr %4, align 1, !tbaa !4
  %5 = getelementptr inbounds nuw i8, ptr %0, i64 44
  %6 = load i32, ptr %5, align 4, !tbaa !8
  %7 = call i32 (i32, ptr, ...) @zend_parse_parameters(i32 noundef %6, ptr noundef nonnull @.str, ptr noundef nonnull %3, ptr noundef nonnull %4) #10
  %8 = icmp eq i32 %7, -1
  br i1 %8, label %9, label %12

9:                                                ; preds = %2
  %10 = load ptr, ptr getelementptr inbounds nuw (i8, ptr @executor_globals, i64 960), align 8, !tbaa !9
  %11 = icmp ne ptr %10, null
  call void @llvm.assume(i1 %11)
  br label %.loopexit

12:                                               ; preds = %2
  %13 = load ptr, ptr %3, align 8, !tbaa !44
  %14 = getelementptr inbounds nuw i8, ptr %13, i64 8
  %15 = load i8, ptr %14, align 8, !tbaa !8
  switch i8 %15, label %16 [
    i8 8, label %28
    i8 6, label %20
  ]

16:                                               ; preds = %12
  %17 = call ptr @zend_zval_value_name(ptr noundef nonnull %13) #10
  call void (i32, ptr, ...) @zend_argument_type_error(i32 noundef 1, ptr noundef nonnull @.str.1, ptr noundef %17) #10
  %18 = load ptr, ptr getelementptr inbounds nuw (i8, ptr @executor_globals, i64 960), align 8, !tbaa !9
  %19 = icmp ne ptr %18, null
  call void @llvm.assume(i1 %19)
  br label %.loopexit

20:                                               ; preds = %12
  %21 = load ptr, ptr %13, align 8, !tbaa !8
  %22 = load i8, ptr %4, align 1, !tbaa !4, !range !45, !noundef !46
  %23 = trunc nuw i8 %22 to i1
  %24 = call fastcc ptr @spl_find_ce_by_name(ptr noundef %21, i1 noundef zeroext %23)
  %25 = icmp eq ptr %24, null
  br i1 %25, label %26, label %32

26:                                               ; preds = %20
  %27 = getelementptr inbounds nuw i8, ptr %1, i64 8
  store i32 2, ptr %27, align 8, !tbaa !8
  br label %.loopexit

28:                                               ; preds = %12
  %29 = load ptr, ptr %13, align 8, !tbaa !8
  %30 = getelementptr inbounds nuw i8, ptr %29, i64 16
  %31 = load ptr, ptr %30, align 8, !tbaa !47
  br label %32

32:                                               ; preds = %28, %20
  %.011 = phi ptr [ %24, %20 ], [ %31, %28 ]
  %33 = call ptr @_zend_new_array_0() #10
  store ptr %33, ptr %1, align 8, !tbaa !8
  %34 = getelementptr inbounds nuw i8, ptr %1, i64 8
  store i32 775, ptr %34, align 8, !tbaa !8
  %.0.in15 = getelementptr inbounds nuw i8, ptr %.011, i64 16
  %.016 = load ptr, ptr %.0.in15, align 8, !tbaa !8
  %.not1417 = icmp eq ptr %.016, null
  br i1 %.not1417, label %.loopexit, label %.lr.ph

.lr.ph:                                           ; preds = %32, %.lr.ph
  %.018 = phi ptr [ %.0, %.lr.ph ], [ %.016, %32 ]
  call void @spl_add_class_name(ptr noundef nonnull %1, ptr noundef nonnull %.018, i32 noundef 0, i32 noundef 0) #10
  %.0.in = getelementptr inbounds nuw i8, ptr %.018, i64 16
  %.0 = load ptr, ptr %.0.in, align 8, !tbaa !8
  %.not14 = icmp eq ptr %.0, null
  br i1 %.not14, label %.loopexit, label %.lr.ph

.loopexit:                                        ; preds = %.lr.ph, %32, %26, %16, %9
  call void @llvm.lifetime.end.p0(i64 1, ptr nonnull %4) #10
  call void @llvm.lifetime.end.p0(i64 8, ptr nonnull %3) #10
  ret void
}